target datalayout = "e-m:e-p270:32:32-p271:32:32-p272:64:64-i64:64-i128:128-f80:128-n8:16:32:64-S128"
target triple = "x86_64-pc-linux-gnu"

%struct.flock = type { i16, i16, i64, i64, i32 }

; Function Attrs: nounwind uwtable
define i32 @Pflock(i32 noundef %0, i32 noundef %1) #0 {
  %3 = alloca i32, align 4
  %4 = alloca i32, align 4
  %5 = alloca i32, align 4
  %6 = alloca %struct.flock, align 8
  %7 = alloca i32, align 4
  store i32 %0, ptr %4, align 4, !tbaa !3
  store i32 %1, ptr %5, align 4, !tbaa !3
  call void @llvm.lifetime.start.p0(i64 32, ptr %6) #9
  %8 = load i32, ptr %5, align 4, !tbaa !3
  %9 = and i32 %8, 8
  %10 = icmp ne i32 %9, 0
  br i1 %10, label %11, label %13

11:                                               ; preds = %2
  %12 = getelementptr inbounds nuw %struct.flock, ptr %6, i32 0, i32 0
  store i16 2, ptr %12, align 8, !tbaa !7
  br label %22

13:                                               ; preds = %2
  %14 = load i32, ptr %5, align 4, !tbaa !3
  %15 = and i32 %14, 1
  %16 = icmp ne i32 %15, 0
  br i1 %16, label %17, label %19

17:                                               ; preds = %13
  %18 = getelementptr inbounds nuw %struct.flock, ptr %6, i32 0, i32 0
  store i16 0, ptr %18, align 8, !tbaa !7
  br label %21

19:                                               ; preds = %13
  %20 = getelementptr inbounds nuw %struct.flock, ptr %6, i32 0, i32 0
  store i16 1, ptr %20, align 8, !tbaa !7
  br label %21

21:                                               ; preds = %19, %17
  br label %22

22:                                               ; preds = %21, %11
  %23 = getelementptr inbounds nuw %struct.flock, ptr %6, i32 0, i32 1
  store i16 0, ptr %23, align 2, !tbaa !11
  %24 = getelementptr inbounds nuw %struct.flock, ptr %6, i32 0, i32 2
  store i64 0, ptr %24, align 8, !tbaa !12
  %25 = getelementptr inbounds nuw %struct.flock, ptr %6, i32 0, i32 3
  store i64 0, ptr %25, align 8, !tbaa !13
  %26 = getelementptr inbounds nuw %struct.flock, ptr %6, i32 0, i32 4
  store i32 0, ptr %26, align 8, !tbaa !14
  %27 = load i32, ptr %4, align 4, !tbaa !3
  %28 = call i32 (i32, i32, ...) @fcntl64(i32 noundef %27, i32 noundef 6, ptr noundef %6)
  %29 = icmp slt i32 %28, 0
  br i1 %29, label %30, label %31

30:                                               ; preds = %22
  store i32 -1, ptr %3, align 4
  store i32 1, ptr %7, align 4
  br label %32

31:                                               ; preds = %22
  store i32 0, ptr %3, align 4
  store i32 1, ptr %7, align 4
  br label %32

32:                                               ; preds = %31, %30
  call void @llvm.lifetime.end.p0(i64 32, ptr %6) #9
  %33 = load i32, ptr %3, align 4
  ret i32 %33
}