; Function Attrs: nounwind uwtable
define range(i32 -1, 1) i32 @Pflock(i32 noundef %0, i32 noundef %1) local_unnamed_addr #0 {
  %3 = alloca %struct.flock, align 8
  call void @llvm.lifetime.start.p0(i64 32, ptr nonnull %3) #15
  %4 = and i32 %1, 8
  %.not = icmp eq i32 %4, 0
  %5 = trunc i32 %1 to i16
  %6 = and i16 %5, 1
  %. = xor i16 %6, 1
  %.sink = select i1 %.not, i16 %., i16 2
  store i16 %.sink, ptr %3, align 8, !tbaa !3
  %7 = getelementptr inbounds nuw i8, ptr %3, i64 2
  store i16 0, ptr %7, align 2, !tbaa !10
  %8 = getelementptr inbounds nuw i8, ptr %3, i64 8
  call void @llvm.memset.p0.i64(ptr noundef nonnull align 8 dereferenceable(20) %8, i8 0, i64 20, i1 false)
  %9 = call i32 (i32, i32, ...) @fcntl64(i32 noundef %0, i32 noundef 6, ptr noundef nonnull %3) #15
  %.lobit = ashr i32 %9, 31
  call void @llvm.lifetime.end.p0(i64 32, ptr nonnull %3) #15
  ret i32 %.lobit
}